target datalayout = "e-m:e-p270:32:32-p271:32:32-p272:64:64-i64:64-i128:128-f80:128-n8:16:32:64-S128"
target triple = "x86_64-pc-linux-gnu"

%class.QString = type { %struct.QArrayDataPointer }
%struct.QArrayDataPointer = type { ptr, ptr, i64 }
%class.SequenceDialog = type <{ %class.WiresharkDialog.base, [3 x i8], ptr, ptr, ptr, i32, i32, double, i32, i8, [3 x i8], ptr, ptr, ptr, %class.QMenu, ptr, ptr, ptr, ptr, %class.QPointer, i8, [7 x i8] }>
%class.WiresharkDialog.base = type <{ %class.GeometryStateDialog, ptr, i8, [7 x i8], %class.QString, %class.QList, i32, i8 }>
%class.GeometryStateDialog = type { %class.QDialog, %class.QString, ptr }
%class.QDialog = type { %class.QWidget }
%class.QWidget = type { %class.QObject, %class.QPaintDevice.base, ptr }
%class.QObject = type { ptr, %class.QScopedPointer }
%class.QScopedPointer = type { ptr }
%class.QPaintDevice.base = type <{ ptr, i16 }>
%class.QList = type { %struct.QArrayDataPointer.0 }
%struct.QArrayDataPointer.0 = type { ptr, ptr, i64 }
%class.QMenu = type { %class.QWidget }
%class.QPointer = type { %class.QWeakPointer }
%class.QWeakPointer = type { ptr, ptr }
%class.Ui_SequenceDialog = type { ptr, ptr, ptr, ptr, ptr, ptr, ptr, ptr, ptr, ptr, ptr, ptr, ptr, ptr, ptr, ptr, ptr, ptr, ptr, ptr, ptr, ptr, ptr, ptr, ptr, ptr, ptr, ptr, ptr, ptr, ptr, ptr, ptr, ptr, ptr, ptr, ptr, ptr }

; Function Attrs: mustprogress null_pointer_is_valid sspstrong uwtable
define void @_ZN14SequenceDialog18enableVoIPFeaturesEv(ptr noundef align 8 dereferenceable_or_null(305) %0) #0 align 2 {
  %2 = alloca ptr, align 8
  store ptr %0, ptr %2, align 8
  %3 = load ptr, ptr %2, align 8
  %4 = getelementptr inbounds nuw %class.SequenceDialog, ptr %3, i32 0, i32 12
  %5 = load ptr, ptr %4, align 8
  %6 = getelementptr inbounds nuw %class.SequenceDialog, ptr %3, i32 0, i32 20
  %7 = load i8, ptr %6, align 8, !range !6, !noundef !7
  %8 = trunc i8 %7 to i1
  %9 = load ptr, ptr %5, align 8
  %10 = getelementptr inbounds ptr, ptr %9, i64 13
  %11 = load ptr, ptr %10, align 8
  call void %11(ptr noundef align 8 dereferenceable_or_null(40) %5, i1 noundef zeroext %8)
  %12 = getelementptr inbounds nuw %class.SequenceDialog, ptr %3, i32 0, i32 2
  %13 = load ptr, ptr %12, align 8
  %14 = getelementptr inbounds nuw %class.Ui_SequenceDialog, ptr %13, i32 0, i32 18
  %15 = load ptr, ptr %14, align 8
  %16 = getelementptr inbounds nuw %class.SequenceDialog, ptr %3, i32 0, i32 20
  %17 = load i8, ptr %16, align 8, !range !6, !noundef !7
  %18 = trunc i8 %17 to i1
  call void @_ZN7QAction10setVisibleEb(ptr noundef align 8 dereferenceable_or_null(16) %15, i1 noundef zeroext %18)
  %19 = getelementptr inbounds nuw %class.SequenceDialog, ptr %3, i32 0, i32 2
  %20 = load ptr, ptr %19, align 8
  %21 = getelementptr inbounds nuw %class.Ui_SequenceDialog, ptr %20, i32 0, i32 19
  %22 = load ptr, ptr %21, align 8
  %23 = getelementptr inbounds nuw %class.SequenceDialog, ptr %3, i32 0, i32 20
  %24 = load i8, ptr %23, align 8, !range !6, !noundef !7
  %25 = trunc i8 %24 to i1
  call void @_ZN7QAction10setVisibleEb(ptr noundef align 8 dereferenceable_or_null(16) %22, i1 noundef zeroext %25)
  ret void
}