; Function Attrs: mustprogress null_pointer_is_valid sspstrong uwtable
define void @_ZN14SequenceDialog18enableVoIPFeaturesEv(ptr noundef readonly align 8 captures(none) dereferenceable_or_null(305) %0) local_unnamed_addr #0 align 2 {
  %2 = getelementptr inbounds nuw i8, ptr %0, i64 200
  %3 = load ptr, ptr %2, align 8
  %4 = getelementptr inbounds nuw i8, ptr %0, i64 304
  %5 = load i8, ptr %4, align 8, !range !12, !noundef !13
  %6 = trunc nuw i8 %5 to i1
  %7 = load ptr, ptr %3, align 8
  %8 = getelementptr inbounds nuw i8, ptr %7, i64 104
  %9 = load ptr, ptr %8, align 8
  tail call void %9(ptr noundef align 8 dereferenceable_or_null(40) %3, i1 noundef zeroext %6)
  %10 = getelementptr inbounds nuw i8, ptr %0, i64 144
  %11 = load ptr, ptr %10, align 8
  %12 = getelementptr inbounds nuw i8, ptr %11, i64 144
  %13 = load ptr, ptr %12, align 8
  %14 = load i8, ptr %4, align 8, !range !12, !noundef !13
  %15 = trunc nuw i8 %14 to i1
  tail call void @_ZN7QAction10setVisibleEb(ptr noundef align 8 dereferenceable_or_null(16) %13, i1 noundef zeroext %15)
  %16 = load ptr, ptr %10, align 8
  %17 = getelementptr inbounds nuw i8, ptr %16, i64 152
  %18 = load ptr, ptr %17, align 8
  %19 = load i8, ptr %4, align 8, !range !12, !noundef !13
  %20 = trunc nuw i8 %19 to i1
  tail call void @_ZN7QAction10setVisibleEb(ptr noundef align 8 dereferenceable_or_null(16) %18, i1 noundef zeroext %20)
  ret void
}